; Function Attrs: mustprogress nounwind uwtable
define internal fastcc void @_ZN12_GLOBAL__N_127get_implied_equalities_implD2Ev(ptr noundef nonnull align 8 dereferenceable(200) %this) unnamed_addr #4 align 2 personality ptr @__gxx_personality_v0 {
entry:
  %m_next.i = getelementptr inbounds i8, ptr %this, i64 104
  %0 = load ptr, ptr %m_next.i, align 8
  %tobool.not.i.i.i.i = icmp eq ptr %0, null
  br i1 %tobool.not.i.i.i.i, label %_ZN7svectorIjjED2Ev.exit.i, label %if.then.i.i.i.i

if.then.i.i.i.i:                                  ; preds = %entry
  %add.ptr.i.i.i.i.i = getelementptr inbounds i8, ptr %0, i64 -8
  invoke void @_ZN6memory10deallocateEPv(ptr noundef nonnull %add.ptr.i.i.i.i.i)
          to label %_ZN7svectorIjjED2Ev.exit.i unwind label %terminate.lpad.i.i.i

terminate.lpad.i.i.i:                             ; preds = %if.then.i.i.i.i
  %1 = landingpad { ptr, i32 }
          catch ptr null
  %2 = extractvalue { ptr, i32 } %1, 0
  tail call void @__clang_call_terminate(ptr %2) #16
  unreachable

_ZN7svectorIjjED2Ev.exit.i:                       ; preds = %if.then.i.i.i.i, %entry
  %m_size.i = getelementptr inbounds i8, ptr %this, i64 96
  %3 = load ptr, ptr %m_size.i, align 8
  %tobool.not.i.i.i1.i = icmp eq ptr %3, null
  br i1 %tobool.not.i.i.i1.i, label %_ZN7svectorIjjED2Ev.exit5.i, label %if.then.i.i.i2.i

if.then.i.i.i2.i:                                 ; preds = %_ZN7svectorIjjED2Ev.exit.i
  %add.ptr.i.i.i.i3.i = getelementptr inbounds i8, ptr %3, i64 -8
  invoke void @_ZN6memory10deallocateEPv(ptr noundef nonnull %add.ptr.i.i.i.i3.i)
          to label %_ZN7svectorIjjED2Ev.exit5.i unwind label %terminate.lpad.i.i4.i

terminate.lpad.i.i4.i:                            ; preds = %if.then.i.i.i2.i
  %4 = landingpad { ptr, i32 }
          catch ptr null
  %5 = extractvalue { ptr, i32 } %4, 0
  tail call void @__clang_call_terminate(ptr %5) #16
  unreachable

_ZN7svectorIjjED2Ev.exit5.i:                      ; preds = %if.then.i.i.i2.i, %_ZN7svectorIjjED2Ev.exit.i
  %m_find.i = getelementptr inbounds i8, ptr %this, i64 88
  %6 = load ptr, ptr %m_find.i, align 8
  %tobool.not.i.i.i6.i = icmp eq ptr %6, null
  br i1 %tobool.not.i.i.i6.i, label %_ZN10union_findI22union_find_default_ctxS0_ED2Ev.exit, label %if.then.i.i.i7.i

if.then.i.i.i7.i:                                 ; preds = %_ZN7svectorIjjED2Ev.exit5.i
  %add.ptr.i.i.i.i8.i = getelementptr inbounds i8, ptr %6, i64 -8
  invoke void @_ZN6memory10deallocateEPv(ptr noundef nonnull %add.ptr.i.i.i.i8.i)
          to label %_ZN10union_findI22union_find_default_ctxS0_ED2Ev.exit unwind label %terminate.lpad.i.i9.i

terminate.lpad.i.i9.i:                            ; preds = %if.then.i.i.i7.i
  %7 = landingpad { ptr, i32 }
          catch ptr null
  %8 = extractvalue { ptr, i32 } %7, 0
  tail call void @__clang_call_terminate(ptr %8) #16
  unreachable

_ZN10union_findI22union_find_default_ctxS0_ED2Ev.exit: ; preds = %_ZN7svectorIjjED2Ev.exit5.i, %if.then.i.i.i7.i
  %m_df = getelementptr inbounds i8, ptr %this, i64 16
  %m_region.i.i = getelementptr inbounds i8, ptr %this, i64 32
  tail call void @_ZN6regionD1Ev(ptr noundef nonnull align 8 dereferenceable(40) %m_region.i.i) #15
  %m_scopes.i.i = getelementptr inbounds i8, ptr %this, i64 24
  %9 = load ptr, ptr %m_scopes.i.i, align 8
  %tobool.not.i.i.i.i.i = icmp eq ptr %9, null
  br i1 %tobool.not.i.i.i.i.i, label %_ZN7svectorIjjED2Ev.exit.i.i, label %if.then.i.i.i.i.i

if.then.i.i.i.i.i:                                ; preds = %_ZN10union_findI22union_find_default_ctxS0_ED2Ev.exit
  %add.ptr.i.i.i.i.i.i = getelementptr inbounds i8, ptr %9, i64 -8
  invoke void @_ZN6memory10deallocateEPv(ptr noundef nonnull %add.ptr.i.i.i.i.i.i)
          to label %_ZN7svectorIjjED2Ev.exit.i.i unwind label %terminate.lpad.i.i.i.i

terminate.lpad.i.i.i.i:                           ; preds = %if.then.i.i.i.i.i
  %10 = landingpad { ptr, i32 }
          catch ptr null
  %11 = extractvalue { ptr, i32 } %10, 0
  tail call void @__clang_call_terminate(ptr %11) #16
  unreachable

_ZN7svectorIjjED2Ev.exit.i.i:                     ; preds = %if.then.i.i.i.i.i, %_ZN10union_findI22union_find_default_ctxS0_ED2Ev.exit
  %12 = load ptr, ptr %m_df, align 8
  %tobool.not.i.i.i1.i.i = icmp eq ptr %12, null
  br i1 %tobool.not.i.i.i1.i.i, label %_ZN22union_find_default_ctxD2Ev.exit, label %if.then.i.i.i2.i.i

if.then.i.i.i2.i.i:                               ; preds = %_ZN7svectorIjjED2Ev.exit.i.i
  %add.ptr.i.i.i.i3.i.i = getelementptr inbounds i8, ptr %12, i64 -8
  invoke void @_ZN6memory10deallocateEPv(ptr noundef nonnull %add.ptr.i.i.i.i3.i.i)
          to label %_ZN22union_find_default_ctxD2Ev.exit unwind label %terminate.lpad.i.i4.i.i

terminate.lpad.i.i4.i.i:                          ; preds = %if.then.i.i.i2.i.i
  %13 = landingpad { ptr, i32 }
          catch ptr null
  %14 = extractvalue { ptr, i32 } %13, 0
  tail call void @__clang_call_terminate(ptr %14) #16
  unreachable

_ZN22union_find_default_ctxD2Ev.exit:             ; preds = %_ZN7svectorIjjED2Ev.exit.i.i, %if.then.i.i.i2.i.i
  ret void
}